target datalayout = "e-m:e-p270:32:32-p271:32:32-p272:64:64-i64:64-i128:128-f80:128-n8:16:32:64-S128"
target triple = "x86_64-pc-linux-gnu"

%"class.std::__cxx11::basic_string" = type { %"struct.std::__cxx11::basic_string<char>::_Alloc_hider", i64, %union.anon }
%"struct.std::__cxx11::basic_string<char>::_Alloc_hider" = type { ptr }
%union.anon = type { i64, [8 x i8] }
%"struct.dmlc::LogMessageFatal::Entry" = type { %"class.std::__cxx11::basic_ostringstream" }
%"class.std::__cxx11::basic_ostringstream" = type { %"class.std::basic_ostream.base", %"class.std::__cxx11::basic_stringbuf", %"class.std::basic_ios" }
%"class.std::basic_ostream.base" = type { ptr }
%"class.std::__cxx11::basic_stringbuf" = type { %"class.std::basic_streambuf", i32, %"class.std::__cxx11::basic_string" }
%"class.std::basic_streambuf" = type { ptr, ptr, ptr, ptr, ptr, ptr, ptr, %"class.std::locale" }
%"class.std::locale" = type { ptr }
%"class.std::basic_ios" = type { %"class.std::ios_base", ptr, i8, i8, ptr, ptr, ptr, ptr }
%"class.std::ios_base" = type { ptr, i64, i64, i32, i32, i32, ptr, %"struct.std::ios_base::_Words", [8 x %"struct.std::ios_base::_Words"], i32, ptr, %"class.std::locale" }
%"struct.std::ios_base::_Words" = type { ptr, i64 }
%"struct.xgboost::DeviceOrd" = type { i16, i16 }
%"struct.xgboost::ObjInfo" = type { i8, i8, i8 }
%"class.dmlc::LogMessageFatal" = type { i8 }
%"struct.xgboost::LearnerModelParam" = type { %"class.xgboost::linalg::Tensor", i32, i32, %"struct.xgboost::ObjInfo", i32 }
%"class.xgboost::linalg::Tensor" = type <{ %"class.xgboost::HostDeviceVector", [1 x i64], i8, [7 x i8] }>
%"class.xgboost::HostDeviceVector" = type { ptr }
%"struct.xgboost::LearnerModelParamLegacy" = type { float, i32, i32, i32, i32, i32, i32, i32, i32, [25 x i32] }

@.str = private unnamed_addr constant [108 x i8] c"generated/home/dtcxzyw/WorkSpace/Projects/compilers/llvm-opt-benchmark/bench/xgboost/xgboost/src/learner.cc\00", align 1
@.str.1 = private unnamed_addr constant [63 x i8] c"multi-target-multi-class is not yet supported. Output classes:\00", align 1
@.str.2 = private unnamed_addr constant [18 x i8] c", output targets:\00", align 1

; Function Attrs: inlinehint mustprogress nounwind uwtable
define linkonce_odr noundef i32 @_ZStorSt12_Ios_IostateS_(i32 noundef %0, i32 noundef %1) #5 comdat {
  %3 = alloca i32, align 4
  %4 = alloca i32, align 4
  store i32 %0, ptr %3, align 4, !tbaa !1720
  store i32 %1, ptr %4, align 4, !tbaa !1720
  %5 = load i32, ptr %3, align 4, !tbaa !1720
  %6 = load i32, ptr %4, align 4, !tbaa !1720
  %7 = or i32 %5, %6
  ret i32 %7
}

; Function Attrs: mustprogress nounwind uwtable
define available_externally noundef i32 @_ZNKSt9basic_iosIcSt11char_traitsIcEE7rdstateEv(ptr noundef nonnull align 8 dereferenceable(264) %0) #4 align 2 {
  %2 = alloca ptr, align 8
  store ptr %0, ptr %2, align 8, !tbaa !138
  %3 = load ptr, ptr %2, align 8
  %4 = getelementptr inbounds nuw %"class.std::ios_base", ptr %3, i32 0, i32 5
  %5 = load i32, ptr %4, align 8, !tbaa !1721
  ret i32 %5
}

; Function Attrs: mustprogress nounwind uwtable
define linkonce_odr void @_ZN7xgboost9DeviceOrdC2ENS0_4TypeEs(ptr noundef nonnull align 2 dereferenceable(4) %0, i16 noundef signext %1, i16 noundef signext %2) unnamed_addr #4 comdat align 2 {
  %4 = alloca ptr, align 8
  %5 = alloca i16, align 2
  %6 = alloca i16, align 2
  store ptr %0, ptr %4, align 8, !tbaa !90
  store i16 %1, ptr %5, align 2, !tbaa !75
  store i16 %2, ptr %6, align 2, !tbaa !77
  %7 = load ptr, ptr %4, align 8
  %8 = getelementptr inbounds nuw %"struct.xgboost::DeviceOrd", ptr %7, i32 0, i32 0
  %9 = load i16, ptr %5, align 2, !tbaa !75
  store i16 %9, ptr %8, align 2, !tbaa !92
  %10 = getelementptr inbounds nuw %"struct.xgboost::DeviceOrd", ptr %7, i32 0, i32 1
  %11 = load i16, ptr %6, align 2, !tbaa !77
  store i16 %11, ptr %10, align 2, !tbaa !132
  ret void
}

; Function Attrs: mustprogress nounwind uwtable
define linkonce_odr noundef signext i16 @_ZN7xgboost9DeviceOrd10CPUOrdinalEv() #4 comdat align 2 {
  ret i16 -1
}

; Function Attrs: mustprogress nounwind uwtable
define linkonce_odr noundef i64 @_ZNSt11char_traitsIcE6lengthEPKc(ptr noundef %0) #4 comdat align 2 {
  %2 = alloca ptr, align 8
  store ptr %0, ptr %2, align 8, !tbaa !67
  %3 = load ptr, ptr %2, align 8, !tbaa !67
  %4 = call i64 @strlen(ptr noundef %3) #3
  ret i64 %4
}

; Function Attrs: mustprogress uwtable
define available_externally void @_ZNSt9basic_iosIcSt11char_traitsIcEE8setstateESt12_Ios_Iostate(ptr noundef nonnull align 8 dereferenceable(264) %0, i32 noundef %1) #8 align 2 {
  %3 = alloca ptr, align 8
  %4 = alloca i32, align 4
  store ptr %0, ptr %3, align 8, !tbaa !138
  store i32 %1, ptr %4, align 4, !tbaa !1720
  %5 = load ptr, ptr %3, align 8
  %6 = call noundef i32 @_ZNKSt9basic_iosIcSt11char_traitsIcEE7rdstateEv(ptr noundef nonnull align 8 dereferenceable(264) %5)
  %7 = load i32, ptr %4, align 4, !tbaa !1720
  %8 = call noundef i32 @_ZStorSt12_Ios_IostateS_(i32 noundef %6, i32 noundef %7)
  call void @_ZNSt9basic_iosIcSt11char_traitsIcEE5clearESt12_Ios_Iostate(ptr noundef nonnull align 8 dereferenceable(264) %5, i32 noundef %8)
  ret void
}

; Function Attrs: mustprogress uwtable
define linkonce_odr i32 @_ZN7xgboost9DeviceOrd3CPUEv() #8 comdat align 2 {
  %1 = alloca %"struct.xgboost::DeviceOrd", align 2
  %2 = call noundef signext i16 @_ZN7xgboost9DeviceOrd10CPUOrdinalEv()
  call void @_ZN7xgboost9DeviceOrdC2ENS0_4TypeEs(ptr noundef nonnull align 2 dereferenceable(4) %1, i16 noundef signext 0, i16 noundef signext %2)
  %3 = load i32, ptr %1, align 2
  ret i32 %3
}

; Function Attrs: inlinehint mustprogress nounwind uwtable
define linkonce_odr void @_ZN7xgboost6linalg6TensorIfLi1EED2Ev(ptr noundef nonnull align 8 dereferenceable(17) %0) unnamed_addr #5 comdat align 2 {
  %2 = alloca ptr, align 8
  store ptr %0, ptr %2, align 8, !tbaa !58
  %3 = load ptr, ptr %2, align 8
  %4 = getelementptr inbounds nuw %"class.xgboost::linalg::Tensor", ptr %3, i32 0, i32 0
  call void @_ZN7xgboost16HostDeviceVectorIfED1Ev(ptr noundef nonnull align 8 dereferenceable(8) %4) #3
  ret void
}

; Function Attrs: mustprogress uwtable
define available_externally noundef nonnull align 8 dereferenceable(8) ptr @_ZNSolsEj(ptr noundef nonnull align 8 dereferenceable(8) %0, i32 noundef %1) #8 align 2 {
  %3 = alloca ptr, align 8
  %4 = alloca i32, align 4
  store ptr %0, ptr %3, align 8, !tbaa !65
  store i32 %1, ptr %4, align 4, !tbaa !51
  %5 = load ptr, ptr %3, align 8
  %6 = load i32, ptr %4, align 4, !tbaa !51
  %7 = zext i32 %6 to i64
  %8 = call noundef nonnull align 8 dereferenceable(8) ptr @_ZNSo9_M_insertImEERSoT_(ptr noundef nonnull align 8 dereferenceable(8) %5, i64 noundef %7)
  ret ptr %8
}

; Function Attrs: inlinehint mustprogress uwtable
define available_externally noundef nonnull align 8 dereferenceable(8) ptr @_ZStlsISt11char_traitsIcEERSt13basic_ostreamIcT_ES5_PKc(ptr noundef nonnull align 8 dereferenceable(8) %0, ptr noundef %1) #11 {
  %3 = alloca ptr, align 8
  %4 = alloca ptr, align 8
  store ptr %0, ptr %3, align 8, !tbaa !65
  store ptr %1, ptr %4, align 8, !tbaa !67
  %5 = load ptr, ptr %4, align 8, !tbaa !67
  %6 = icmp ne ptr %5, null
  br i1 %6, label %13, label %7

7:                                                ; preds = %2
  %8 = load ptr, ptr %3, align 8, !tbaa !65
  %9 = load ptr, ptr %8, align 8, !tbaa !8
  %10 = getelementptr i8, ptr %9, i64 -24
  %11 = load i64, ptr %10, align 8
  %12 = getelementptr inbounds i8, ptr %8, i64 %11
  call void @_ZNSt9basic_iosIcSt11char_traitsIcEE8setstateESt12_Ios_Iostate(ptr noundef nonnull align 8 dereferenceable(264) %12, i32 noundef 1)
  br label %19

13:                                               ; preds = %2
  %14 = load ptr, ptr %3, align 8, !tbaa !65
  %15 = load ptr, ptr %4, align 8, !tbaa !67
  %16 = load ptr, ptr %4, align 8, !tbaa !67
  %17 = call noundef i64 @_ZNSt11char_traitsIcE6lengthEPKc(ptr noundef %16)
  %18 = call noundef nonnull align 8 dereferenceable(8) ptr @_ZSt16__ostream_insertIcSt11char_traitsIcEERSt13basic_ostreamIT_T0_ES6_PKS3_l(ptr noundef nonnull align 8 dereferenceable(8) %14, ptr noundef %15, i64 noundef %17)
  br label %19

19:                                               ; preds = %13, %7
  %20 = load ptr, ptr %3, align 8, !tbaa !65
  ret ptr %20
}

; Function Attrs: mustprogress uwtable
define linkonce_odr noundef nonnull align 8 dereferenceable(112) ptr @_ZN4dmlc15LogMessageFatal6streamB5cxx11Ev(ptr noundef nonnull align 1 dereferenceable(1) %0) #8 comdat align 2 {
  %2 = alloca ptr, align 8
  store ptr %0, ptr %2, align 8, !tbaa !69
  %3 = load ptr, ptr %2, align 8
  %4 = call noundef nonnull align 8 dereferenceable(376) ptr @_ZN4dmlc15LogMessageFatal8GetEntryEv(ptr noundef nonnull align 1 dereferenceable(1) %3)
  %5 = getelementptr inbounds nuw %"struct.dmlc::LogMessageFatal::Entry", ptr %4, i32 0, i32 0
  ret ptr %5
}

; Function Attrs: mustprogress uwtable
define linkonce_odr void @_ZN4dmlc15LogMessageFatalC2EPKci(ptr noundef nonnull align 1 dereferenceable(1) %0, ptr noundef %1, i32 noundef %2) unnamed_addr #8 comdat align 2 {
  %4 = alloca ptr, align 8
  %5 = alloca ptr, align 8
  %6 = alloca i32, align 4
  store ptr %0, ptr %4, align 8, !tbaa !69
  store ptr %1, ptr %5, align 8, !tbaa !67
  store i32 %2, ptr %6, align 4, !tbaa !51
  %7 = load ptr, ptr %4, align 8
  %8 = call noundef nonnull align 8 dereferenceable(376) ptr @_ZN4dmlc15LogMessageFatal8GetEntryEv(ptr noundef nonnull align 1 dereferenceable(1) %7)
  %9 = load ptr, ptr %5, align 8, !tbaa !67
  %10 = load i32, ptr %6, align 4, !tbaa !51
  call void @_ZN4dmlc15LogMessageFatal5Entry4InitEPKci(ptr noundef nonnull align 8 dereferenceable(376) %8, ptr noundef %9, i32 noundef %10)
  ret void
}

; Function Attrs: inlinehint mustprogress nounwind uwtable
define linkonce_odr noundef nonnull align 4 dereferenceable(4) ptr @_ZSt3maxIjERKT_S2_S2_(ptr noundef nonnull align 4 dereferenceable(4) %0, ptr noundef nonnull align 4 dereferenceable(4) %1) #5 comdat {
  %3 = alloca ptr, align 8
  %4 = alloca ptr, align 8
  %5 = alloca ptr, align 8
  store ptr %0, ptr %4, align 8, !tbaa !63
  store ptr %1, ptr %5, align 8, !tbaa !63
  %6 = load ptr, ptr %4, align 8, !tbaa !63
  %7 = load i32, ptr %6, align 4, !tbaa !51
  %8 = load ptr, ptr %5, align 8, !tbaa !63
  %9 = load i32, ptr %8, align 4, !tbaa !51
  %10 = icmp ult i32 %7, %9
  br i1 %10, label %11, label %13

11:                                               ; preds = %2
  %12 = load ptr, ptr %5, align 8, !tbaa !63
  store ptr %12, ptr %3, align 8
  br label %15

13:                                               ; preds = %2
  %14 = load ptr, ptr %4, align 8, !tbaa !63
  store ptr %14, ptr %3, align 8
  br label %15

15:                                               ; preds = %13, %11
  %16 = load ptr, ptr %3, align 8
  ret ptr %16
}

; Function Attrs: mustprogress uwtable
define linkonce_odr void @_ZN7xgboost6linalg6TensorIfLi1EEC2Ev(ptr noundef nonnull align 8 dereferenceable(17) %0) unnamed_addr #8 comdat align 2 {
  %2 = alloca ptr, align 8
  %3 = alloca %"struct.xgboost::DeviceOrd", align 2
  store ptr %0, ptr %2, align 8, !tbaa !58
  %4 = load ptr, ptr %2, align 8
  %5 = getelementptr inbounds nuw %"class.xgboost::linalg::Tensor", ptr %4, i32 0, i32 0
  %6 = call i32 @_ZN7xgboost9DeviceOrd3CPUEv()
  store i32 %6, ptr %3, align 2
  %7 = load i32, ptr %3, align 2
  call void @_ZN7xgboost16HostDeviceVectorIfEC1EmfNS_9DeviceOrdE(ptr noundef nonnull align 8 dereferenceable(8) %5, i64 noundef 0, float noundef 0.000000e+00, i32 %7)
  %8 = getelementptr inbounds nuw %"class.xgboost::linalg::Tensor", ptr %4, i32 0, i32 1
  store i64 0, ptr %8, align 8, !tbaa !60
  %9 = getelementptr inbounds nuw %"class.xgboost::linalg::Tensor", ptr %4, i32 0, i32 2
  store i8 0, ptr %9, align 8, !tbaa !62
  ret void
}

; Function Attrs: mustprogress uwtable
define void @_ZN7xgboost17LearnerModelParamC2ERKNS_23LearnerModelParamLegacyENS_7ObjInfoENS_13MultiStrategyE(ptr noundef nonnull align 8 dereferenceable(40) %0, ptr noundef nonnull align 4 dereferenceable(136) %1, i24 %2, i32 noundef %3) unnamed_addr #8 align 2 personality ptr @__gxx_personality_v0 {
  %5 = alloca %"struct.xgboost::ObjInfo", align 1
  %6 = alloca ptr, align 8
  %7 = alloca ptr, align 8
  %8 = alloca i32, align 4
  %9 = alloca i32, align 4
  %10 = alloca ptr, align 8
  %11 = alloca i32, align 4
  %12 = alloca %"class.dmlc::LogMessageFatal", align 1
  store i24 %2, ptr %5, align 1
  store ptr %0, ptr %6, align 8, !tbaa !31
  store ptr %1, ptr %7, align 8, !tbaa !33
  store i32 %3, ptr %8, align 4, !tbaa !35
  %13 = load ptr, ptr %6, align 8
  %14 = getelementptr inbounds nuw %"struct.xgboost::LearnerModelParam", ptr %13, i32 0, i32 0
  call void @_ZN7xgboost6linalg6TensorIfLi1EEC2Ev(ptr noundef nonnull align 8 dereferenceable(17) %14)
  %15 = getelementptr inbounds nuw %"struct.xgboost::LearnerModelParam", ptr %13, i32 0, i32 1
  %16 = load ptr, ptr %7, align 8, !tbaa !33
  %17 = getelementptr inbounds nuw %"struct.xgboost::LearnerModelParamLegacy", ptr %16, i32 0, i32 1
  %18 = load i32, ptr %17, align 4, !tbaa !37
  store i32 %18, ptr %15, align 8, !tbaa !41
  %19 = getelementptr inbounds nuw %"struct.xgboost::LearnerModelParam", ptr %13, i32 0, i32 2
  call void @llvm.lifetime.start.p0(i64 4, ptr %9) #3
  %20 = load ptr, ptr %7, align 8, !tbaa !33
  %21 = getelementptr inbounds nuw %"struct.xgboost::LearnerModelParamLegacy", ptr %20, i32 0, i32 2
  %22 = load i32, ptr %21, align 4, !tbaa !50
  store i32 %22, ptr %9, align 4, !tbaa !51
  %23 = load ptr, ptr %7, align 8, !tbaa !33
  %24 = getelementptr inbounds nuw %"struct.xgboost::LearnerModelParamLegacy", ptr %23, i32 0, i32 7
  %25 = invoke noundef nonnull align 4 dereferenceable(4) ptr @_ZSt3maxIjERKT_S2_S2_(ptr noundef nonnull align 4 dereferenceable(4) %9, ptr noundef nonnull align 4 dereferenceable(4) %24)
          to label %26 unwind label %59

26:                                               ; preds = %4
  %27 = load i32, ptr %25, align 4, !tbaa !51
  call void @llvm.lifetime.end.p0(i64 4, ptr %9) #3
  store i32 %27, ptr %19, align 4, !tbaa !52
  %28 = getelementptr inbounds nuw %"struct.xgboost::LearnerModelParam", ptr %13, i32 0, i32 3
  call void @llvm.memcpy.p0.p0.i64(ptr align 8 %28, ptr align 1 %5, i64 3, i1 false), !tbaa.struct !53
  %29 = getelementptr inbounds nuw %"struct.xgboost::LearnerModelParam", ptr %13, i32 0, i32 4
  %30 = load i32, ptr %8, align 4, !tbaa !35
  store i32 %30, ptr %29, align 4, !tbaa !56
  %31 = load ptr, ptr %7, align 8, !tbaa !33
  %32 = getelementptr inbounds nuw %"struct.xgboost::LearnerModelParamLegacy", ptr %31, i32 0, i32 2
  %33 = load i32, ptr %32, align 4, !tbaa !50
  %34 = icmp sgt i32 %33, 1
  br i1 %34, label %35, label %73

35:                                               ; preds = %26
  %36 = load ptr, ptr %7, align 8, !tbaa !33
  %37 = getelementptr inbounds nuw %"struct.xgboost::LearnerModelParamLegacy", ptr %36, i32 0, i32 7
  %38 = load i32, ptr %37, align 4, !tbaa !57
  %39 = icmp ugt i32 %38, 1
  br i1 %39, label %40, label %73

40:                                               ; preds = %35
  call void @llvm.lifetime.start.p0(i64 1, ptr %12) #3
  invoke void @_ZN4dmlc15LogMessageFatalC2EPKci(ptr noundef nonnull align 1 dereferenceable(1) %12, ptr noundef @.str, i32 noundef 266)
          to label %41 unwind label %63

41:                                               ; preds = %40
  %42 = invoke noundef nonnull align 8 dereferenceable(112) ptr @_ZN4dmlc15LogMessageFatal6streamB5cxx11Ev(ptr noundef nonnull align 1 dereferenceable(1) %12)
          to label %43 unwind label %67

43:                                               ; preds = %41
  %44 = invoke noundef nonnull align 8 dereferenceable(8) ptr @_ZStlsISt11char_traitsIcEERSt13basic_ostreamIcT_ES5_PKc(ptr noundef nonnull align 8 dereferenceable(8) %42, ptr noundef @.str.1)
          to label %45 unwind label %67

45:                                               ; preds = %43
  %46 = load ptr, ptr %7, align 8, !tbaa !33
  %47 = getelementptr inbounds nuw %"struct.xgboost::LearnerModelParamLegacy", ptr %46, i32 0, i32 2
  %48 = load i32, ptr %47, align 4, !tbaa !50
  %49 = invoke noundef nonnull align 8 dereferenceable(8) ptr @_ZNSolsEi(ptr noundef nonnull align 8 dereferenceable(8) %44, i32 noundef %48)
          to label %50 unwind label %67

50:                                               ; preds = %45
  %51 = invoke noundef nonnull align 8 dereferenceable(8) ptr @_ZStlsISt11char_traitsIcEERSt13basic_ostreamIcT_ES5_PKc(ptr noundef nonnull align 8 dereferenceable(8) %49, ptr noundef @.str.2)
          to label %52 unwind label %67

52:                                               ; preds = %50
  %53 = load ptr, ptr %7, align 8, !tbaa !33
  %54 = getelementptr inbounds nuw %"struct.xgboost::LearnerModelParamLegacy", ptr %53, i32 0, i32 7
  %55 = load i32, ptr %54, align 4, !tbaa !57
  %56 = invoke noundef nonnull align 8 dereferenceable(8) ptr @_ZNSolsEj(ptr noundef nonnull align 8 dereferenceable(8) %51, i32 noundef %55)
          to label %57 unwind label %67

57:                                               ; preds = %52
  invoke void @_ZN4dmlc15LogMessageFatalD2Ev(ptr noundef nonnull align 1 dereferenceable(1) %12)
          to label %58 unwind label %63

58:                                               ; preds = %57
  call void @llvm.lifetime.end.p0(i64 1, ptr %12) #3
  br label %73

59:                                               ; preds = %4
  %60 = landingpad { ptr, i32 }
          cleanup
  %61 = extractvalue { ptr, i32 } %60, 0
  store ptr %61, ptr %10, align 8
  %62 = extractvalue { ptr, i32 } %60, 1
  store i32 %62, ptr %11, align 4
  call void @llvm.lifetime.end.p0(i64 4, ptr %9) #3
  br label %74

63:                                               ; preds = %57, %40
  %64 = landingpad { ptr, i32 }
          cleanup
  %65 = extractvalue { ptr, i32 } %64, 0
  store ptr %65, ptr %10, align 8
  %66 = extractvalue { ptr, i32 } %64, 1
  store i32 %66, ptr %11, align 4
  br label %72

67:                                               ; preds = %52, %50, %45, %43, %41
  %68 = landingpad { ptr, i32 }
          cleanup
  %69 = extractvalue { ptr, i32 } %68, 0
  store ptr %69, ptr %10, align 8
  %70 = extractvalue { ptr, i32 } %68, 1
  store i32 %70, ptr %11, align 4
  invoke void @_ZN4dmlc15LogMessageFatalD2Ev(ptr noundef nonnull align 1 dereferenceable(1) %12)
          to label %71 unwind label %80

71:                                               ; preds = %67
  br label %72

72:                                               ; preds = %71, %63
  call void @llvm.lifetime.end.p0(i64 1, ptr %12) #3
  br label %74

73:                                               ; preds = %58, %35, %26
  ret void

74:                                               ; preds = %72, %59
  call void @_ZN7xgboost6linalg6TensorIfLi1EED2Ev(ptr noundef nonnull align 8 dereferenceable(17) %14) #3
  br label %75

75:                                               ; preds = %74
  %76 = load ptr, ptr %10, align 8
  %77 = load i32, ptr %11, align 4
  %78 = insertvalue { ptr, i32 } poison, ptr %76, 0
  %79 = insertvalue { ptr, i32 } %78, i32 %77, 1
  resume { ptr, i32 } %79

80:                                               ; preds = %67
  %81 = landingpad { ptr, i32 }
          catch ptr null
  %82 = extractvalue { ptr, i32 } %81, 0
  call void @__clang_call_terminate(ptr %82) #32
  unreachable
}