; Function Attrs: mustprogress uwtable
define void @_ZN7xgboost17LearnerModelParamC2ERKNS_23LearnerModelParamLegacyENS_7ObjInfoENS_13MultiStrategyE(ptr noundef nonnull align 8 dereferenceable(40) %0, ptr noundef nonnull readonly align 4 captures(none) dereferenceable(136) %1, i24 %2, i32 noundef %3) unnamed_addr #8 align 2 personality ptr @__gxx_personality_v0 {
  %5 = alloca %"class.dmlc::LogMessageFatal", align 1
  tail call void @_ZN7xgboost16HostDeviceVectorIfEC1EmfNS_9DeviceOrdE(ptr noundef nonnull align 8 dereferenceable(17) %0, i64 noundef 0, float noundef 0.000000e+00, i32 -65536)
  %6 = getelementptr inbounds nuw i8, ptr %0, i64 8
  store i64 0, ptr %6, align 8, !tbaa !37
  %7 = getelementptr inbounds nuw i8, ptr %0, i64 16
  store i8 0, ptr %7, align 8, !tbaa !38
  %8 = getelementptr inbounds nuw i8, ptr %0, i64 24
  %9 = getelementptr inbounds nuw i8, ptr %1, i64 4
  %10 = load i32, ptr %9, align 4, !tbaa !43
  store i32 %10, ptr %8, align 8, !tbaa !46
  %11 = getelementptr inbounds nuw i8, ptr %0, i64 28
  %12 = getelementptr inbounds nuw i8, ptr %1, i64 8
  %13 = load i32, ptr %12, align 4, !tbaa !52
  %14 = getelementptr inbounds nuw i8, ptr %1, i64 28
  %15 = load i32, ptr %14, align 4, !tbaa !16
  %.sroa.speculated = tail call i32 @llvm.umax.i32(i32 %13, i32 %15)
  store i32 %.sroa.speculated, ptr %11, align 4, !tbaa !53
  %16 = getelementptr inbounds nuw i8, ptr %0, i64 32
  store i24 %2, ptr %16, align 8
  %17 = getelementptr inbounds nuw i8, ptr %0, i64 36
  store i32 %3, ptr %17, align 4, !tbaa !54
  %18 = load i32, ptr %12, align 4, !tbaa !52
  %19 = icmp sgt i32 %18, 1
  %20 = load i32, ptr %14, align 4
  %21 = icmp ugt i32 %20, 1
  %or.cond = select i1 %19, i1 %21, i1 false
  br i1 %or.cond, label %22, label %39

22:                                               ; preds = %4
  call void @llvm.lifetime.start.p0(i64 1, ptr nonnull %5) #19
  %23 = invoke noundef nonnull align 8 dereferenceable(376) ptr @_ZN4dmlc15LogMessageFatal8GetEntryEv(ptr noundef nonnull align 1 dereferenceable(1) %5)
          to label %.noexc unwind label %34

.noexc:                                           ; preds = %22
  invoke void @_ZN4dmlc15LogMessageFatal5Entry4InitEPKci(ptr noundef nonnull align 8 dereferenceable(376) %23, ptr noundef nonnull @.str, i32 noundef 266)
          to label %_ZN4dmlc15LogMessageFatalC2EPKci.exit unwind label %34

_ZN4dmlc15LogMessageFatalC2EPKci.exit:            ; preds = %.noexc
  %24 = invoke noundef nonnull align 8 dereferenceable(376) ptr @_ZN4dmlc15LogMessageFatal8GetEntryEv(ptr noundef nonnull align 1 dereferenceable(1) %5)
          to label %_ZN4dmlc15LogMessageFatal6streamB5cxx11Ev.exit unwind label %36

_ZN4dmlc15LogMessageFatal6streamB5cxx11Ev.exit:   ; preds = %_ZN4dmlc15LogMessageFatalC2EPKci.exit
  %25 = invoke noundef nonnull align 8 dereferenceable(8) ptr @_ZSt16__ostream_insertIcSt11char_traitsIcEERSt13basic_ostreamIT_T0_ES6_PKS3_l(ptr noundef nonnull align 8 dereferenceable(8) %24, ptr noundef nonnull @.str.1, i64 noundef 62)
          to label %_ZStlsISt11char_traitsIcEERSt13basic_ostreamIcT_ES5_PKc.exit unwind label %36

_ZStlsISt11char_traitsIcEERSt13basic_ostreamIcT_ES5_PKc.exit: ; preds = %_ZN4dmlc15LogMessageFatal6streamB5cxx11Ev.exit
  %26 = load i32, ptr %12, align 4, !tbaa !52
  %27 = invoke noundef nonnull align 8 dereferenceable(8) ptr @_ZNSolsEi(ptr noundef nonnull align 8 dereferenceable(8) %24, i32 noundef %26)
          to label %28 unwind label %36

28:                                               ; preds = %_ZStlsISt11char_traitsIcEERSt13basic_ostreamIcT_ES5_PKc.exit
  %29 = invoke noundef nonnull align 8 dereferenceable(8) ptr @_ZSt16__ostream_insertIcSt11char_traitsIcEERSt13basic_ostreamIT_T0_ES6_PKS3_l(ptr noundef nonnull align 8 dereferenceable(8) %27, ptr noundef nonnull @.str.2, i64 noundef 17)
          to label %_ZStlsISt11char_traitsIcEERSt13basic_ostreamIcT_ES5_PKc.exit17 unwind label %36

_ZStlsISt11char_traitsIcEERSt13basic_ostreamIcT_ES5_PKc.exit17: ; preds = %28
  %30 = load i32, ptr %14, align 4, !tbaa !55
  %31 = zext i32 %30 to i64
  %32 = invoke noundef nonnull align 8 dereferenceable(8) ptr @_ZNSo9_M_insertImEERSoT_(ptr noundef nonnull align 8 dereferenceable(8) %27, i64 noundef %31)
          to label %_ZNSolsEj.exit unwind label %36

_ZNSolsEj.exit:                                   ; preds = %_ZStlsISt11char_traitsIcEERSt13basic_ostreamIcT_ES5_PKc.exit17
  invoke void @_ZN4dmlc15LogMessageFatalD2Ev(ptr noundef nonnull align 1 dereferenceable(1) %5)
          to label %33 unwind label %34

33:                                               ; preds = %_ZNSolsEj.exit
  call void @llvm.lifetime.end.p0(i64 1, ptr nonnull %5) #19
  br label %39

34:                                               ; preds = %.noexc, %22, %_ZNSolsEj.exit
  %35 = landingpad { ptr, i32 }
          cleanup
  br label %38

36:                                               ; preds = %_ZStlsISt11char_traitsIcEERSt13basic_ostreamIcT_ES5_PKc.exit17, %28, %_ZN4dmlc15LogMessageFatal6streamB5cxx11Ev.exit, %_ZN4dmlc15LogMessageFatalC2EPKci.exit, %_ZStlsISt11char_traitsIcEERSt13basic_ostreamIcT_ES5_PKc.exit
  %37 = landingpad { ptr, i32 }
          cleanup
  invoke void @_ZN4dmlc15LogMessageFatalD2Ev(ptr noundef nonnull align 1 dereferenceable(1) %5)
          to label %38 unwind label %40

38:                                               ; preds = %36, %34
  %.pn = phi { ptr, i32 } [ %35, %34 ], [ %37, %36 ]
  call void @llvm.lifetime.end.p0(i64 1, ptr nonnull %5) #19
  call void @_ZN7xgboost16HostDeviceVectorIfED1Ev(ptr noundef nonnull align 8 dereferenceable(17) %0) #19
  resume { ptr, i32 } %.pn

39:                                               ; preds = %33, %4
  ret void

40:                                               ; preds = %36
  %41 = landingpad { ptr, i32 }
          catch ptr null
  %42 = extractvalue { ptr, i32 } %41, 0
  call void @__clang_call_terminate(ptr %42) #41
  unreachable
}